target datalayout = "e-m:e-p270:32:32-p271:32:32-p272:64:64-i64:64-i128:128-f80:128-n8:16:32:64-S128"
target triple = "x86_64-pc-linux-gnu"

%struct.UConverterSharedData = type { i32, i32, ptr, ptr, i8, i8, ptr, i32, %struct.UConverterMBCSTable }
%struct.UConverterMBCSTable = type { i8, i8, i8, i32, ptr, ptr, ptr, ptr, ptr, ptr, [64 x i16], ptr, ptr, i32, i8, i8, i8, i16, i32, ptr, ptr, ptr, ptr }

; Function Attrs: mustprogress nounwind uwtable
define signext i8 @ucnv_MBCSIsLeadByte_77(ptr noundef %0, i8 noundef signext %1) #4 {
  %3 = alloca ptr, align 8
  %4 = alloca i8, align 1
  store ptr %0, ptr %3, align 8, !tbaa !3
  store i8 %1, ptr %4, align 1, !tbaa !40
  %5 = load ptr, ptr %3, align 8, !tbaa !3
  %6 = getelementptr inbounds nuw %struct.UConverterSharedData, ptr %5, i32 0, i32 8
  %7 = getelementptr inbounds nuw %struct.UConverterMBCSTable, ptr %6, i32 0, i32 4
  %8 = load ptr, ptr %7, align 8, !tbaa !75
  %9 = getelementptr inbounds [256 x i32], ptr %8, i64 0
  %10 = load i8, ptr %4, align 1, !tbaa !40
  %11 = zext i8 %10 to i64
  %12 = getelementptr inbounds nuw [256 x i32], ptr %9, i64 0, i64 %11
  %13 = load i32, ptr %12, align 4, !tbaa !28
  %14 = icmp sge i32 %13, 0
  %15 = zext i1 %14 to i8
  ret i8 %15
}