; Function Attrs: mustprogress nofree norecurse nosync nounwind willreturn memory(read, inaccessiblemem: none) uwtable
define signext range(i8 0, 2) i8 @ucnv_MBCSIsLeadByte_77(ptr noundef readonly captures(none) %0, i8 noundef signext %1) local_unnamed_addr #3 {
  %3 = getelementptr inbounds nuw i8, ptr %0, i64 56
  %4 = load ptr, ptr %3, align 8, !tbaa !88
  %5 = zext i8 %1 to i64
  %6 = getelementptr inbounds nuw [256 x i32], ptr %4, i64 0, i64 %5
  %7 = load i32, ptr %6, align 4, !tbaa !27
  %8 = icmp sgt i32 %7, -1
  %9 = zext i1 %8 to i8
  ret i8 %9
}